; ModuleID = '64/1784.c'
source_filename = "64/1784.c"
target datalayout = "e-m:e-p270:32:32-p271:32:32-p272:64:64-i64:64-f80:128-n8:16:32:64-S128"
target triple = "x86_64-pc-linux-gnu"

@.str = private unnamed_addr constant [3 x i8] c"%d\00", align 1
@.str.1 = private unnamed_addr constant [7 x i8] c"%d%d%d\00", align 1
@.str.2 = private unnamed_addr constant [29 x i8] c"(%d,%d,%d)-(%d,%d,%d)=%.2lf\0A\00", align 1

; Function Attrs: noinline nounwind uwtable
define dso_local i32 @main() #0 {
  %1 = alloca i32, align 4
  %2 = alloca [10 x i32], align 16
  %3 = alloca [10 x i32], align 16
  %4 = alloca [10 x i32], align 16
  %5 = alloca [200 x i32], align 16
  %6 = alloca i32, align 4
  %7 = alloca i32, align 4
  %8 = alloca i32, align 4
  %9 = alloca i32, align 4
  %10 = alloca i32, align 4
  %11 = alloca i32, align 4
  %12 = alloca i32, align 4
  %13 = alloca [200 x double], align 16
  %14 = alloca double, align 8
  %15 = alloca [200 x double], align 16
  store i32 0, i32* %1, align 4
  %16 = call i32 (i8*, ...) @__isoc99_scanf(i8* getelementptr inbounds ([3 x i8], [3 x i8]* @.str, i64 0, i64 0), i32* %7)
  store i32 0, i32* %10, align 4
  store i32 0, i32* %8, align 4
  br label %17

17:                                               ; preds = %32, %0
  %18 = load i32, i32* %8, align 4
  %19 = load i32, i32* %7, align 4
  %20 = icmp slt i32 %18, %19
  br i1 %20, label %21, label %35

21:                                               ; preds = %17
  %22 = load i32, i32* %8, align 4
  %23 = sext i32 %22 to i64
  %24 = getelementptr inbounds [10 x i32], [10 x i32]* %2, i64 0, i64 %23
  %25 = load i32, i32* %8, align 4
  %26 = sext i32 %25 to i64
  %27 = getelementptr inbounds [10 x i32], [10 x i32]* %3, i64 0, i64 %26
  %28 = load i32, i32* %8, align 4
  %29 = sext i32 %28 to i64
  %30 = getelementptr inbounds [10 x i32], [10 x i32]* %4, i64 0, i64 %29
  %31 = call i32 (i8*, ...) @__isoc99_scanf(i8* getelementptr inbounds ([7 x i8], [7 x i8]* @.str.1, i64 0, i64 0), i32* %24, i32* %27, i32* %30)
  br label %32

32:                                               ; preds = %21
  %33 = load i32, i32* %8, align 4
  %34 = add nsw i32 %33, 1
  store i32 %34, i32* %8, align 4
  br label %17

35:                                               ; preds = %17
  store i32 0, i32* %8, align 4
  br label %36

36:                                               ; preds = %132, %35
  %37 = load i32, i32* %8, align 4
  %38 = load i32, i32* %7, align 4
  %39 = icmp slt i32 %37, %38
  br i1 %39, label %40, label %135

40:                                               ; preds = %36
  %41 = load i32, i32* %8, align 4
  %42 = add nsw i32 %41, 1
  store i32 %42, i32* %9, align 4
  br label %43

43:                                               ; preds = %128, %40
  %44 = load i32, i32* %9, align 4
  %45 = load i32, i32* %7, align 4
  %46 = icmp slt i32 %44, %45
  br i1 %46, label %47, label %131

47:                                               ; preds = %43
  %48 = load i32, i32* %8, align 4
  %49 = sext i32 %48 to i64
  %50 = getelementptr inbounds [10 x i32], [10 x i32]* %2, i64 0, i64 %49
  %51 = load i32, i32* %50, align 4
  %52 = load i32, i32* %9, align 4
  %53 = sext i32 %52 to i64
  %54 = getelementptr inbounds [10 x i32], [10 x i32]* %2, i64 0, i64 %53
  %55 = load i32, i32* %54, align 4
  %56 = sub nsw i32 %51, %55
  %57 = load i32, i32* %8, align 4
  %58 = sext i32 %57 to i64
  %59 = getelementptr inbounds [10 x i32], [10 x i32]* %2, i64 0, i64 %58
  %60 = load i32, i32* %59, align 4
  %61 = load i32, i32* %9, align 4
  %62 = sext i32 %61 to i64
  %63 = getelementptr inbounds [10 x i32], [10 x i32]* %2, i64 0, i64 %62
  %64 = load i32, i32* %63, align 4
  %65 = sub nsw i32 %60, %64
  %66 = mul nsw i32 %56, %65
  %67 = load i32, i32* %8, align 4
  %68 = sext i32 %67 to i64
  %69 = getelementptr inbounds [10 x i32], [10 x i32]* %3, i64 0, i64 %68
  %70 = load i32, i32* %69, align 4
  %71 = load i32, i32* %9, align 4
  %72 = sext i32 %71 to i64
  %73 = getelementptr inbounds [10 x i32], [10 x i32]* %3, i64 0, i64 %72
  %74 = load i32, i32* %73, align 4
  %75 = sub nsw i32 %70, %74
  %76 = load i32, i32* %8, align 4
  %77 = sext i32 %76 to i64
  %78 = getelementptr inbounds [10 x i32], [10 x i32]* %3, i64 0, i64 %77
  %79 = load i32, i32* %78, align 4
  %80 = load i32, i32* %9, align 4
  %81 = sext i32 %80 to i64
  %82 = getelementptr inbounds [10 x i32], [10 x i32]* %3, i64 0, i64 %81
  %83 = load i32, i32* %82, align 4
  %84 = sub nsw i32 %79, %83
  %85 = mul nsw i32 %75, %84
  %86 = add nsw i32 %66, %85
  %87 = load i32, i32* %8, align 4
  %88 = sext i32 %87 to i64
  %89 = getelementptr inbounds [10 x i32], [10 x i32]* %4, i64 0, i64 %88
  %90 = load i32, i32* %89, align 4
  %91 = load i32, i32* %9, align 4
  %92 = sext i32 %91 to i64
  %93 = getelementptr inbounds [10 x i32], [10 x i32]* %4, i64 0, i64 %92
  %94 = load i32, i32* %93, align 4
  %95 = sub nsw i32 %90, %94
  %96 = load i32, i32* %8, align 4
  %97 = sext i32 %96 to i64
  %98 = getelementptr inbounds [10 x i32], [10 x i32]* %4, i64 0, i64 %97
  %99 = load i32, i32* %98, align 4
  %100 = load i32, i32* %9, align 4
  %101 = sext i32 %100 to i64
  %102 = getelementptr inbounds [10 x i32], [10 x i32]* %4, i64 0, i64 %101
  %103 = load i32, i32* %102, align 4
  %104 = sub nsw i32 %99, %103
  %105 = mul nsw i32 %95, %104
  %106 = add nsw i32 %86, %105
  %107 = sitofp i32 %106 to double
  %108 = load i32, i32* %10, align 4
  %109 = sext i32 %108 to i64
  %110 = getelementptr inbounds [200 x double], [200 x double]* %15, i64 0, i64 %109
  store double %107, double* %110, align 8
  %111 = load i32, i32* %10, align 4
  %112 = sext i32 %111 to i64
  %113 = getelementptr inbounds [200 x double], [200 x double]* %15, i64 0, i64 %112
  %114 = load double, double* %113, align 8
  %115 = call double @sqrt(double %114) #3
  %116 = load i32, i32* %10, align 4
  %117 = sext i32 %116 to i64
  %118 = getelementptr inbounds [200 x double], [200 x double]* %13, i64 0, i64 %117
  store double %115, double* %118, align 8
  %119 = load i32, i32* %8, align 4
  %120 = mul nsw i32 %119, 10
  %121 = load i32, i32* %9, align 4
  %122 = add nsw i32 %120, %121
  %123 = load i32, i32* %10, align 4
  %124 = sext i32 %123 to i64
  %125 = getelementptr inbounds [200 x i32], [200 x i32]* %5, i64 0, i64 %124
  store i32 %122, i32* %125, align 4
  %126 = load i32, i32* %10, align 4
  %127 = add nsw i32 %126, 1
  store i32 %127, i32* %10, align 4
  br label %128

128:                                              ; preds = %47
  %129 = load i32, i32* %9, align 4
  %130 = add nsw i32 %129, 1
  store i32 %130, i32* %9, align 4
  br label %43

131:                                              ; preds = %43
  br label %132

132:                                              ; preds = %131
  %133 = load i32, i32* %8, align 4
  %134 = add nsw i32 %133, 1
  store i32 %134, i32* %8, align 4
  br label %36

135:                                              ; preds = %36
  %136 = load i32, i32* %10, align 4
  %137 = add nsw i32 %136, -1
  store i32 %137, i32* %10, align 4
  %138 = load i32, i32* %10, align 4
  store i32 %138, i32* %8, align 4
  br label %139

139:                                              ; preds = %198, %135
  %140 = load i32, i32* %8, align 4
  %141 = icmp sgt i32 %140, 0
  br i1 %141, label %142, label %201

142:                                              ; preds = %139
  store i32 0, i32* %9, align 4
  br label %143

143:                                              ; preds = %194, %142
  %144 = load i32, i32* %9, align 4
  %145 = load i32, i32* %8, align 4
  %146 = icmp slt i32 %144, %145
  br i1 %146, label %147, label %197

147:                                              ; preds = %143
  %148 = load i32, i32* %9, align 4
  %149 = sext i32 %148 to i64
  %150 = getelementptr inbounds [200 x double], [200 x double]* %13, i64 0, i64 %149
  %151 = load double, double* %150, align 8
  %152 = load i32, i32* %9, align 4
  %153 = add nsw i32 %152, 1
  %154 = sext i32 %153 to i64
  %155 = getelementptr inbounds [200 x double], [200 x double]* %13, i64 0, i64 %154
  %156 = load double, double* %155, align 8
  %157 = fcmp olt double %151, %156
  br i1 %157, label %158, label %193

158:                                              ; preds = %147
  %159 = load i32, i32* %9, align 4
  %160 = sext i32 %159 to i64
  %161 = getelementptr inbounds [200 x double], [200 x double]* %13, i64 0, i64 %160
  %162 = load double, double* %161, align 8
  store double %162, double* %14, align 8
  %163 = load i32, i32* %9, align 4
  %164 = add nsw i32 %163, 1
  %165 = sext i32 %164 to i64
  %166 = getelementptr inbounds [200 x double], [200 x double]* %13, i64 0, i64 %165
  %167 = load double, double* %166, align 8
  %168 = load i32, i32* %9, align 4
  %169 = sext i32 %168 to i64
  %170 = getelementptr inbounds [200 x double], [200 x double]* %13, i64 0, i64 %169
  store double %167, double* %170, align 8
  %171 = load double, double* %14, align 8
  %172 = load i32, i32* %9, align 4
  %173 = add nsw i32 %172, 1
  %174 = sext i32 %173 to i64
  %175 = getelementptr inbounds [200 x double], [200 x double]* %13, i64 0, i64 %174
  store double %171, double* %175, align 8
  %176 = load i32, i32* %9, align 4
  %177 = sext i32 %176 to i64
  %178 = getelementptr inbounds [200 x i32], [200 x i32]* %5, i64 0, i64 %177
  %179 = load i32, i32* %178, align 4
  store i32 %179, i32* %6, align 4
  %180 = load i32, i32* %9, align 4
  %181 = add nsw i32 %180, 1
  %182 = sext i32 %181 to i64
  %183 = getelementptr inbounds [200 x i32], [200 x i32]* %5, i64 0, i64 %182
  %184 = load i32, i32* %183, align 4
  %185 = load i32, i32* %9, align 4
  %186 = sext i32 %185 to i64
  %187 = getelementptr inbounds [200 x i32], [200 x i32]* %5, i64 0, i64 %186
  store i32 %184, i32* %187, align 4
  %188 = load i32, i32* %6, align 4
  %189 = load i32, i32* %9, align 4
  %190 = add nsw i32 %189, 1
  %191 = sext i32 %190 to i64
  %192 = getelementptr inbounds [200 x i32], [200 x i32]* %5, i64 0, i64 %191
  store i32 %188, i32* %192, align 4
  br label %193

193:                                              ; preds = %158, %147
  br label %194

194:                                              ; preds = %193
  %195 = load i32, i32* %9, align 4
  %196 = add nsw i32 %195, 1
  store i32 %196, i32* %9, align 4
  br label %143

197:                                              ; preds = %143
  br label %198

198:                                              ; preds = %197
  %199 = load i32, i32* %8, align 4
  %200 = add nsw i32 %199, -1
  store i32 %200, i32* %8, align 4
  br label %139

201:                                              ; preds = %139
  store i32 0, i32* %8, align 4
  br label %202

202:                                              ; preds = %246, %201
  %203 = load i32, i32* %8, align 4
  %204 = load i32, i32* %10, align 4
  %205 = icmp sle i32 %203, %204
  br i1 %205, label %206, label %249

206:                                              ; preds = %202
  %207 = load i32, i32* %8, align 4
  %208 = sext i32 %207 to i64
  %209 = getelementptr inbounds [200 x i32], [200 x i32]* %5, i64 0, i64 %208
  %210 = load i32, i32* %209, align 4
  %211 = sdiv i32 %210, 10
  store i32 %211, i32* %11, align 4
  %212 = load i32, i32* %8, align 4
  %213 = sext i32 %212 to i64
  %214 = getelementptr inbounds [200 x i32], [200 x i32]* %5, i64 0, i64 %213
  %215 = load i32, i32* %214, align 4
  %216 = srem i32 %215, 10
  store i32 %216, i32* %12, align 4
  %217 = load i32, i32* %11, align 4
  %218 = sext i32 %217 to i64
  %219 = getelementptr inbounds [10 x i32], [10 x i32]* %2, i64 0, i64 %218
  %220 = load i32, i32* %219, align 4
  %221 = load i32, i32* %11, align 4
  %222 = sext i32 %221 to i64
  %223 = getelementptr inbounds [10 x i32], [10 x i32]* %3, i64 0, i64 %222
  %224 = load i32, i32* %223, align 4
  %225 = load i32, i32* %11, align 4
  %226 = sext i32 %225 to i64
  %227 = getelementptr inbounds [10 x i32], [10 x i32]* %4, i64 0, i64 %226
  %228 = load i32, i32* %227, align 4
  %229 = load i32, i32* %12, align 4
  %230 = sext i32 %229 to i64
  %231 = getelementptr inbounds [10 x i32], [10 x i32]* %2, i64 0, i64 %230
  %232 = load i32, i32* %231, align 4
  %233 = load i32, i32* %12, align 4
  %234 = sext i32 %233 to i64
  %235 = getelementptr inbounds [10 x i32], [10 x i32]* %3, i64 0, i64 %234
  %236 = load i32, i32* %235, align 4
  %237 = load i32, i32* %12, align 4
  %238 = sext i32 %237 to i64
  %239 = getelementptr inbounds [10 x i32], [10 x i32]* %4, i64 0, i64 %238
  %240 = load i32, i32* %239, align 4
  %241 = load i32, i32* %8, align 4
  %242 = sext i32 %241 to i64
  %243 = getelementptr inbounds [200 x double], [200 x double]* %13, i64 0, i64 %242
  %244 = load double, double* %243, align 8
  %245 = call i32 (i8*, ...) @printf(i8* getelementptr inbounds ([29 x i8], [29 x i8]* @.str.2, i64 0, i64 0), i32 %220, i32 %224, i32 %228, i32 %232, i32 %236, i32 %240, double %244)
  br label %246

246:                                              ; preds = %206
  %247 = load i32, i32* %8, align 4
  %248 = add nsw i32 %247, 1
  store i32 %248, i32* %8, align 4
  br label %202

249:                                              ; preds = %202
  ret i32 0
}

declare dso_local i32 @__isoc99_scanf(i8*, ...) #1

; Function Attrs: nounwind
declare dso_local double @sqrt(double) #2

declare dso_local i32 @printf(i8*, ...) #1


!llvm.module.flags = !{!0}
!llvm.ident = !{!1}

!0 = !{i32 1, !"wchar_size", i32 4}
!1 = !{!"clang version 10.0.0-4ubuntu1 "}
